; Function Attrs: nounwind uwtable
define internal noundef ptr @test_gc_visit_objects_basic(ptr readnone captures(none) %0, ptr readnone captures(none) %1) #0 {
  %3 = alloca %struct.gc_visit_state_basic, align 8
  call void @llvm.lifetime.start.p0(i64 16, ptr nonnull %3) #8
  %4 = tail call ptr @PyList_New(i64 noundef 0) #8
  %5 = icmp eq ptr %4, null
  br i1 %5, label %16, label %6

6:                                                ; preds = %2
  store ptr %4, ptr %3, align 8, !tbaa !9
  %7 = getelementptr inbounds nuw i8, ptr %3, i64 8
  store i32 0, ptr %7, align 8, !tbaa !12
  call void @PyUnstable_GC_VisitObjects(ptr noundef nonnull @gc_visit_callback_basic, ptr noundef nonnull %3) #8
  %8 = load i32, ptr %4, align 8, !tbaa !3
  %.not.i = icmp sgt i32 %8, -1
  br i1 %.not.i, label %9, label %Py_DECREF.exit

9:                                                ; preds = %6
  %10 = add nsw i32 %8, -1
  store i32 %10, ptr %4, align 8, !tbaa !3
  %11 = icmp eq i32 %10, 0
  br i1 %11, label %12, label %Py_DECREF.exit

12:                                               ; preds = %9
  call void @_Py_Dealloc(ptr noundef nonnull %4) #8
  br label %Py_DECREF.exit

Py_DECREF.exit:                                   ; preds = %6, %9, %12
  %13 = load i32, ptr %7, align 8, !tbaa !12
  %.not = icmp eq i32 %13, 0
  br i1 %.not, label %14, label %16

14:                                               ; preds = %Py_DECREF.exit
  %15 = load ptr, ptr @PyExc_AssertionError, align 8, !tbaa !6
  call void @PyErr_SetString(ptr noundef %15, ptr noundef nonnull @.str.16) #8
  br label %16

16:                                               ; preds = %Py_DECREF.exit, %2, %14
  %.0 = phi ptr [ null, %14 ], [ null, %2 ], [ @_Py_NoneStruct, %Py_DECREF.exit ]
  call void @llvm.lifetime.end.p0(i64 16, ptr nonnull %3) #8
  ret ptr %.0
}